; Function Attrs: mustprogress nounwind uwtable
define noundef i64 @_ZNK12tdata3_csr_t4readEv(ptr noundef nonnull readonly align 8 captures(none) dereferenceable(37) %0) unnamed_addr #7 align 2 {
  %2 = getelementptr inbounds nuw i8, ptr %0, i64 8
  %3 = load ptr, ptr %2, align 8, !tbaa !6
  %4 = getelementptr inbounds nuw i8, ptr %3, i64 266840
  %5 = getelementptr inbounds nuw i8, ptr %0, i64 16
  %6 = load ptr, ptr %5, align 8, !tbaa !15
  %7 = getelementptr inbounds nuw i8, ptr %6, i64 2072
  %8 = load ptr, ptr %7, align 8, !tbaa !176
  %9 = load ptr, ptr %8, align 8, !tbaa !3
  %10 = getelementptr inbounds nuw i8, ptr %9, i64 8
  %11 = load ptr, ptr %10, align 8
  %12 = tail call noundef i64 %11(ptr noundef nonnull align 8 dereferenceable(37) %8) #30
  %13 = trunc i64 %12 to i32
  %14 = tail call noundef i64 @_ZNK8triggers8module_t11tdata3_readEj(ptr noundef nonnull align 8 dereferenceable(32) %4, i32 noundef %13) #30
  ret i64 %14
}